; Function Attrs: mustprogress nounwind willreturn uwtable
define void @H5LTyy_delete_buffer(ptr noundef %0) local_unnamed_addr #8 {
  %.not = icmp eq ptr %0, null
  br i1 %.not, label %21, label %2

2:                                                ; preds = %1
  %3 = load ptr, ptr @yy_buffer_stack, align 8
  %.not6 = icmp eq ptr %3, null
  br i1 %.not6, label %8, label %4

4:                                                ; preds = %2
  %5 = load i64, ptr @yy_buffer_stack_top, align 8
  %6 = getelementptr inbounds ptr, ptr %3, i64 %5
  %7 = load ptr, ptr %6, align 8
  br label %8

8:                                                ; preds = %2, %4
  %9 = phi ptr [ %7, %4 ], [ null, %2 ]
  %10 = icmp eq ptr %9, %0
  br i1 %10, label %11, label %14

11:                                               ; preds = %8
  %12 = load i64, ptr @yy_buffer_stack_top, align 8
  %13 = getelementptr inbounds ptr, ptr %3, i64 %12
  store ptr null, ptr %13, align 8
  br label %14

14:                                               ; preds = %11, %8
  %15 = getelementptr inbounds i8, ptr %0, i64 32
  %16 = load i32, ptr %15, align 8
  %.not7 = icmp eq i32 %16, 0
  br i1 %.not7, label %20, label %17

17:                                               ; preds = %14
  %18 = getelementptr inbounds i8, ptr %0, i64 8
  %19 = load ptr, ptr %18, align 8
  tail call void @free(ptr noundef %19) #28
  br label %20

20:                                               ; preds = %17, %14
  tail call void @free(ptr noundef nonnull %0) #28
  br label %21

21:                                               ; preds = %1, %20
  ret void
}